; ModuleID = '14/103.c'
source_filename = "14/103.c"
target datalayout = "e-m:e-p270:32:32-p271:32:32-p272:64:64-i64:64-f80:128-n8:16:32:64-S128"
target triple = "x86_64-pc-linux-gnu"

%struct.student = type { i32, i32, i32 }

@.str = private unnamed_addr constant [3 x i8] c"%d\00", align 1
@.str.1 = private unnamed_addr constant [9 x i8] c"%d %d %d\00", align 1
@stu = common dso_local global [100000 x %struct.student] zeroinitializer, align 16
@.str.2 = private unnamed_addr constant [7 x i8] c"%d %d\0A\00", align 1
@.str.3 = private unnamed_addr constant [6 x i8] c"%d %d\00", align 1

; Function Attrs: noinline nounwind uwtable
define dso_local void @main() #0 {
  %1 = alloca i32, align 4
  %2 = alloca i32, align 4
  %3 = alloca [100000 x i32], align 16
  %4 = alloca [3 x i32], align 4
  %5 = alloca i32, align 4
  %6 = call i32 (i8*, ...) @__isoc99_scanf(i8* getelementptr inbounds ([3 x i8], [3 x i8]* @.str, i64 0, i64 0), i32* %1)
  store i32 0, i32* %2, align 4
  br label %7

7:                                                ; preds = %39, %0
  %8 = load i32, i32* %2, align 4
  %9 = load i32, i32* %1, align 4
  %10 = icmp slt i32 %8, %9
  br i1 %10, label %11, label %42

11:                                               ; preds = %7
  %12 = load i32, i32* %2, align 4
  %13 = sext i32 %12 to i64
  %14 = getelementptr inbounds [100000 x %struct.student], [100000 x %struct.student]* @stu, i64 0, i64 %13
  %15 = getelementptr inbounds %struct.student, %struct.student* %14, i32 0, i32 0
  %16 = load i32, i32* %2, align 4
  %17 = sext i32 %16 to i64
  %18 = getelementptr inbounds [100000 x %struct.student], [100000 x %struct.student]* @stu, i64 0, i64 %17
  %19 = getelementptr inbounds %struct.student, %struct.student* %18, i32 0, i32 1
  %20 = load i32, i32* %2, align 4
  %21 = sext i32 %20 to i64
  %22 = getelementptr inbounds [100000 x %struct.student], [100000 x %struct.student]* @stu, i64 0, i64 %21
  %23 = getelementptr inbounds %struct.student, %struct.student* %22, i32 0, i32 2
  %24 = call i32 (i8*, ...) @__isoc99_scanf(i8* getelementptr inbounds ([9 x i8], [9 x i8]* @.str.1, i64 0, i64 0), i32* %15, i32* %19, i32* %23)
  %25 = load i32, i32* %2, align 4
  %26 = sext i32 %25 to i64
  %27 = getelementptr inbounds [100000 x %struct.student], [100000 x %struct.student]* @stu, i64 0, i64 %26
  %28 = getelementptr inbounds %struct.student, %struct.student* %27, i32 0, i32 1
  %29 = load i32, i32* %28, align 4
  %30 = load i32, i32* %2, align 4
  %31 = sext i32 %30 to i64
  %32 = getelementptr inbounds [100000 x %struct.student], [100000 x %struct.student]* @stu, i64 0, i64 %31
  %33 = getelementptr inbounds %struct.student, %struct.student* %32, i32 0, i32 2
  %34 = load i32, i32* %33, align 4
  %35 = add nsw i32 %29, %34
  %36 = load i32, i32* %2, align 4
  %37 = sext i32 %36 to i64
  %38 = getelementptr inbounds [100000 x i32], [100000 x i32]* %3, i64 0, i64 %37
  store i32 %35, i32* %38, align 4
  br label %39

39:                                               ; preds = %11
  %40 = load i32, i32* %2, align 4
  %41 = add nsw i32 %40, 1
  store i32 %41, i32* %2, align 4
  br label %7

42:                                               ; preds = %7
  store i32 0, i32* %2, align 4
  store i32 -1, i32* %5, align 4
  %43 = getelementptr inbounds [3 x i32], [3 x i32]* %4, i64 0, i64 0
  store i32 0, i32* %43, align 4
  br label %44

44:                                               ; preds = %63, %42
  %45 = load i32, i32* %2, align 4
  %46 = load i32, i32* %1, align 4
  %47 = icmp slt i32 %45, %46
  br i1 %47, label %48, label %66

48:                                               ; preds = %44
  %49 = load i32, i32* %2, align 4
  %50 = sext i32 %49 to i64
  %51 = getelementptr inbounds [100000 x i32], [100000 x i32]* %3, i64 0, i64 %50
  %52 = load i32, i32* %51, align 4
  %53 = load i32, i32* %5, align 4
  %54 = icmp sgt i32 %52, %53
  br i1 %54, label %55, label %62

55:                                               ; preds = %48
  %56 = load i32, i32* %2, align 4
  %57 = sext i32 %56 to i64
  %58 = getelementptr inbounds [100000 x i32], [100000 x i32]* %3, i64 0, i64 %57
  %59 = load i32, i32* %58, align 4
  store i32 %59, i32* %5, align 4
  %60 = load i32, i32* %2, align 4
  %61 = getelementptr inbounds [3 x i32], [3 x i32]* %4, i64 0, i64 0
  store i32 %60, i32* %61, align 4
  br label %62

62:                                               ; preds = %55, %48
  br label %63

63:                                               ; preds = %62
  %64 = load i32, i32* %2, align 4
  %65 = add nsw i32 %64, 1
  store i32 %65, i32* %2, align 4
  br label %44

66:                                               ; preds = %44
  store i32 0, i32* %2, align 4
  store i32 -1, i32* %5, align 4
  %67 = getelementptr inbounds [3 x i32], [3 x i32]* %4, i64 0, i64 1
  store i32 0, i32* %67, align 4
  br label %68

68:                                               ; preds = %94, %66
  %69 = load i32, i32* %2, align 4
  %70 = load i32, i32* %1, align 4
  %71 = icmp slt i32 %69, %70
  br i1 %71, label %72, label %97

72:                                               ; preds = %68
  %73 = load i32, i32* %2, align 4
  %74 = getelementptr inbounds [3 x i32], [3 x i32]* %4, i64 0, i64 0
  %75 = load i32, i32* %74, align 4
  %76 = icmp eq i32 %73, %75
  br i1 %76, label %77, label %78

77:                                               ; preds = %72
  br label %94

78:                                               ; preds = %72
  %79 = load i32, i32* %2, align 4
  %80 = sext i32 %79 to i64
  %81 = getelementptr inbounds [100000 x i32], [100000 x i32]* %3, i64 0, i64 %80
  %82 = load i32, i32* %81, align 4
  %83 = load i32, i32* %5, align 4
  %84 = icmp sgt i32 %82, %83
  br i1 %84, label %85, label %92

85:                                               ; preds = %78
  %86 = load i32, i32* %2, align 4
  %87 = sext i32 %86 to i64
  %88 = getelementptr inbounds [100000 x i32], [100000 x i32]* %3, i64 0, i64 %87
  %89 = load i32, i32* %88, align 4
  store i32 %89, i32* %5, align 4
  %90 = load i32, i32* %2, align 4
  %91 = getelementptr inbounds [3 x i32], [3 x i32]* %4, i64 0, i64 1
  store i32 %90, i32* %91, align 4
  br label %92

92:                                               ; preds = %85, %78
  br label %93

93:                                               ; preds = %92
  br label %94

94:                                               ; preds = %93, %77
  %95 = load i32, i32* %2, align 4
  %96 = add nsw i32 %95, 1
  store i32 %96, i32* %2, align 4
  br label %68

97:                                               ; preds = %68
  store i32 0, i32* %2, align 4
  store i32 -1, i32* %5, align 4
  %98 = getelementptr inbounds [3 x i32], [3 x i32]* %4, i64 0, i64 2
  store i32 0, i32* %98, align 4
  br label %99

99:                                               ; preds = %130, %97
  %100 = load i32, i32* %2, align 4
  %101 = load i32, i32* %1, align 4
  %102 = icmp slt i32 %100, %101
  br i1 %102, label %103, label %133

103:                                              ; preds = %99
  %104 = load i32, i32* %2, align 4
  %105 = getelementptr inbounds [3 x i32], [3 x i32]* %4, i64 0, i64 0
  %106 = load i32, i32* %105, align 4
  %107 = icmp eq i32 %104, %106
  br i1 %107, label %113, label %108

108:                                              ; preds = %103
  %109 = load i32, i32* %2, align 4
  %110 = getelementptr inbounds [3 x i32], [3 x i32]* %4, i64 0, i64 1
  %111 = load i32, i32* %110, align 4
  %112 = icmp eq i32 %109, %111
  br i1 %112, label %113, label %114

113:                                              ; preds = %108, %103
  br label %130

114:                                              ; preds = %108
  %115 = load i32, i32* %2, align 4
  %116 = sext i32 %115 to i64
  %117 = getelementptr inbounds [100000 x i32], [100000 x i32]* %3, i64 0, i64 %116
  %118 = load i32, i32* %117, align 4
  %119 = load i32, i32* %5, align 4
  %120 = icmp sgt i32 %118, %119
  br i1 %120, label %121, label %128

121:                                              ; preds = %114
  %122 = load i32, i32* %2, align 4
  %123 = sext i32 %122 to i64
  %124 = getelementptr inbounds [100000 x i32], [100000 x i32]* %3, i64 0, i64 %123
  %125 = load i32, i32* %124, align 4
  store i32 %125, i32* %5, align 4
  %126 = load i32, i32* %2, align 4
  %127 = getelementptr inbounds [3 x i32], [3 x i32]* %4, i64 0, i64 2
  store i32 %126, i32* %127, align 4
  br label %128

128:                                              ; preds = %121, %114
  br label %129

129:                                              ; preds = %128
  br label %130

130:                                              ; preds = %129, %113
  %131 = load i32, i32* %2, align 4
  %132 = add nsw i32 %131, 1
  store i32 %132, i32* %2, align 4
  br label %99

133:                                              ; preds = %99
  %134 = getelementptr inbounds [3 x i32], [3 x i32]* %4, i64 0, i64 0
  %135 = load i32, i32* %134, align 4
  %136 = sext i32 %135 to i64
  %137 = getelementptr inbounds [100000 x %struct.student], [100000 x %struct.student]* @stu, i64 0, i64 %136
  %138 = getelementptr inbounds %struct.student, %struct.student* %137, i32 0, i32 0
  %139 = load i32, i32* %138, align 4
  %140 = getelementptr inbounds [3 x i32], [3 x i32]* %4, i64 0, i64 0
  %141 = load i32, i32* %140, align 4
  %142 = sext i32 %141 to i64
  %143 = getelementptr inbounds [100000 x i32], [100000 x i32]* %3, i64 0, i64 %142
  %144 = load i32, i32* %143, align 4
  %145 = call i32 (i8*, ...) @printf(i8* getelementptr inbounds ([7 x i8], [7 x i8]* @.str.2, i64 0, i64 0), i32 %139, i32 %144)
  %146 = getelementptr inbounds [3 x i32], [3 x i32]* %4, i64 0, i64 1
  %147 = load i32, i32* %146, align 4
  %148 = sext i32 %147 to i64
  %149 = getelementptr inbounds [100000 x %struct.student], [100000 x %struct.student]* @stu, i64 0, i64 %148
  %150 = getelementptr inbounds %struct.student, %struct.student* %149, i32 0, i32 0
  %151 = load i32, i32* %150, align 4
  %152 = getelementptr inbounds [3 x i32], [3 x i32]* %4, i64 0, i64 1
  %153 = load i32, i32* %152, align 4
  %154 = sext i32 %153 to i64
  %155 = getelementptr inbounds [100000 x i32], [100000 x i32]* %3, i64 0, i64 %154
  %156 = load i32, i32* %155, align 4
  %157 = call i32 (i8*, ...) @printf(i8* getelementptr inbounds ([7 x i8], [7 x i8]* @.str.2, i64 0, i64 0), i32 %151, i32 %156)
  %158 = getelementptr inbounds [3 x i32], [3 x i32]* %4, i64 0, i64 2
  %159 = load i32, i32* %158, align 4
  %160 = sext i32 %159 to i64
  %161 = getelementptr inbounds [100000 x %struct.student], [100000 x %struct.student]* @stu, i64 0, i64 %160
  %162 = getelementptr inbounds %struct.student, %struct.student* %161, i32 0, i32 0
  %163 = load i32, i32* %162, align 4
  %164 = getelementptr inbounds [3 x i32], [3 x i32]* %4, i64 0, i64 2
  %165 = load i32, i32* %164, align 4
  %166 = sext i32 %165 to i64
  %167 = getelementptr inbounds [100000 x i32], [100000 x i32]* %3, i64 0, i64 %166
  %168 = load i32, i32* %167, align 4
  %169 = call i32 (i8*, ...) @printf(i8* getelementptr inbounds ([6 x i8], [6 x i8]* @.str.3, i64 0, i64 0), i32 %163, i32 %168)
  ret void
}

declare dso_local i32 @__isoc99_scanf(i8*, ...) #1

declare dso_local i32 @printf(i8*, ...) #1


!llvm.module.flags = !{!0}
!llvm.ident = !{!1}

!0 = !{i32 1, !"wchar_size", i32 4}
!1 = !{!"clang version 10.0.0-4ubuntu1 "}
